Certificate:
    Data:
        Version: 3 (0x2)
        Serial Number: 16 (0x10)
        Signature Algorithm: sha256WithRSAEncryption
        Issuer: C=US, O=Google, OU=Enterprise, CN=Single Root CA
        Validity
            Not Before: Dec  1 04:55:53 2025 GMT
            Not After : Dec  1 04:55:53 2035 GMT
        Subject: C=US, O=Google, OU=Enterprise, CN=backend.esodemoapp2.com
        Subject Public Key Info:
            Public Key Algorithm: rsaEncryption
                Public-Key: (2048 bit)
                Modulus:
                    00:a3:ec:a8:d8:a9:cc:f4:03:ff:61:26:05:2b:1a:
                    3d:81:f9:02:13:fe:d1:c6:28:20:fa:49:ec:f3:6d:
                    3a:96:32:1e:f3:5c:e1:64:51:e7:fa:51:be:3e:f8:
                    c2:44:eb:83:f6:8b:2b:bc:6f:65:d9:42:00:41:94:
                    79:ee:84:42:46:75:12:37:2e:d3:31:39:8c:fe:4f:
                    2d:3c:37:a4:9d:b0:54:d9:10:63:9a:46:fc:84:67:
                    05:cd:83:a8:2f:74:02:47:0f:f0:ed:e8:05:36:81:
                    2a:ea:d2:a1:f1:af:85:aa:50:d2:d6:4d:7c:28:8c:
                    f5:53:f3:eb:70:9e:0f:66:7e:fa:f7:62:7c:70:ae:
                    98:72:ba:05:93:77:19:18:1a:8a:bc:e9:20:7c:df:
                    1f:54:0d:01:d3:00:bb:cb:a8:3a:02:8b:1f:bd:4a:
                    f6:1d:1b:5c:5c:7f:e4:c5:27:4d:f5:52:ea:90:55:
                    67:50:4f:db:d1:7d:3f:6e:0e:5a:af:e2:a3:ec:72:
                    7c:14:44:64:b6:1f:7f:52:4e:97:50:f1:29:6b:21:
                    a3:4b:5a:c3:5d:a6:23:91:a4:7f:22:5d:af:10:55:
                    6b:69:4b:c3:ab:16:0c:7e:22:1d:6e:60:5b:21:4a:
                    3c:eb:f4:33:5a:c1:8a:34:75:ec:77:bb:48:57:17:
                    8a:fb
                Exponent: 65537 (0x10001)
        X509v3 extensions:
            X509v3 Key Usage: critical
                Digital Signature
            X509v3 Basic Constraints: 
                CA:FALSE
            X509v3 Extended Key Usage: 
                TLS Web Server Authentication
            X509v3 Subject Key Identifier: 
                7B:D0:7B:DD:FC:73:CD:9A:35:14:29:09:F2:35:07:CD:3A:6C:D6:87
            X509v3 Authority Key Identifier: 
                D2:8C:6F:F6:B3:15:F0:72:70:3B:F9:18:C9:E2:9B:35:29:A6:5D:34
            Authority Information Access: 
                CA Issuers - URI:http://pki.esodemoapp2.com/ca/root-ca.cer
            X509v3 CRL Distribution Points: 
                Full Name:
                  URI:http://pki.esodemoapp2.com/ca/root-ca.crl

            X509v3 Subject Alternative Name: 
                DNS:backend.esodemoapp2.com
    Signature Algorithm: sha256WithRSAEncryption
    Signature Value:
        10:4f:42:9d:9c:d6:37:2f:e2:b3:82:c1:36:ae:9c:e6:8d:dd:
        78:12:dc:b4:a0:05:e6:fa:16:a3:7b:82:f5:98:5e:49:c1:8a:
        49:a4:e6:b6:41:19:44:78:7e:61:fb:44:f0:7d:1b:49:61:94:
        c5:4c:6d:f1:b2:fa:38:1a:78:34:6c:63:b5:ac:f5:7c:20:78:
        7b:3c:65:ce:6f:ca:99:e7:c6:5d:a6:96:f1:33:13:10:99:7e:
        9f:37:b0:e9:e6:60:15:1e:65:a6:f4:3f:0e:9e:a0:88:e6:b1:
        ab:02:bb:8f:e6:8e:ec:ae:8f:90:bc:e8:79:21:c2:46:b6:e5:
        f8:33:90:c6:f4:97:1b:e0:89:e1:64:77:5c:62:04:ab:67:f1:
        e2:3d:5c:bf:7a:d9:44:ff:42:79:c8:85:9e:f8:18:4a:9f:75:
        41:8b:f3:1b:b9:f0:4d:bd:59:d4:ea:bf:f1:d5:c4:1a:4d:d0:
        04:72:16:15:d8:d4:8e:63:39:da:ec:d7:c7:2e:9b:49:e8:d4:
        69:57:35:6c:9b:fa:51:c5:b1:fe:7a:c2:e1:c1:3a:00:43:8b:
        13:cd:0f:ba:b2:6e:6e:9a:d1:ee:35:cf:41:d2:61:64:df:84:
        b0:54:c0:71:4f:36:82:5c:83:0f:3c:d5:9e:49:74:17:87:9c:
        a8:d0:70:94
-----BEGIN CERTIFICATE-----
MIIEOTCCAyGgAwIBAgIBEDANBgkqhkiG9w0BAQsFADBMMQswCQYDVQQGEwJVUzEP
MA0GA1UECgwGR29vZ2xlMRMwEQYDVQQLDApFbnRlcnByaXNlMRcwFQYDVQQDDA5T
aW5nbGUgUm9vdCBDQTAeFw0yNTEyMDEwNDU1NTNaFw0zNTEyMDEwNDU1NTNaMFUx
CzAJBgNVBAYTAlVTMQ8wDQYDVQQKDAZHb29nbGUxEzARBgNVBAsMCkVudGVycHJp
c2UxIDAeBgNVBAMMF2JhY2tlbmQuZXNvZGVtb2FwcDIuY29tMIIBIjANBgkqhkiG
9w0BAQEFAAOCAQ8AMIIBCgKCAQEAo+yo2KnM9AP/YSYFKxo9gfkCE/7Rxigg+kns
8206ljIe81zhZFHn+lG+PvjCROuD9osrvG9l2UIAQZR57oRCRnUSNy7TMTmM/k8t
PDeknbBU2RBjmkb8hGcFzYOoL3QCRw/w7egFNoEq6tKh8a+FqlDS1k18KIz1U/Pr
cJ4PZn7692J8cK6YcroFk3cZGBqKvOkgfN8fVA0B0wC7y6g6AosfvUr2HRtcXH/k
xSdN9VLqkFVnUE/b0X0/bg5ar+Kj7HJ8FERkth9/Uk6XUPEpayGjS1rDXaYjkaR/
Il2vEFVraUvDqxYMfiIdbmBbIUo86/QzWsGKNHXsd7tIVxeK+wIDAQABo4IBGzCC
ARcwDgYDVR0PAQH/BAQDAgeAMAkGA1UdEwQCMAAwEwYDVR0lBAwwCgYIKwYBBQUH
AwEwHQYDVR0OBBYEFHvQe938c82aNRQpCfI1B806bNaHMB8GA1UdIwQYMBaAFNKM
b/azFfBycDv5GMnimzUppl00MEUGCCsGAQUFBwEBBDkwNzA1BggrBgEFBQcwAoYp
aHR0cDovL3BraS5lc29kZW1vYXBwMi5jb20vY2Evcm9vdC1jYS5jZXIwOgYDVR0f
BDMwMTAvoC2gK4YpaHR0cDovL3BraS5lc29kZW1vYXBwMi5jb20vY2Evcm9vdC1j
YS5jcmwwIgYDVR0RBBswGYIXYmFja2VuZC5lc29kZW1vYXBwMi5jb20wDQYJKoZI
hvcNAQELBQADggEBABBPQp2c1jcv4rOCwTaunOaN3XgS3LSgBeb6FqN7gvWYXknB
ikmk5rZBGUR4fmH7RPB9G0lhlMVMbfGy+jgaeDRsY7Ws9XwgeHs8Zc5vypnnxl2m
lvEzExCZfp83sOnmYBUeZab0Pw6eoIjmsasCu4/mjuyuj5C86Hkhwka25fgzkMb0
lxvgieFkd1xiBKtn8eI9XL962UT/QnnIhZ74GEqfdUGL8xu58E29WdTqv/HVxBpN
0ARyFhXY1I5jOdrs18cum0no1GlXNWyb+lHFsf56wuHBOgBDixPND7qybm6a0e41
z0HSYWTfhLBUwHFPNoJcgw881Z5JdBeHnKjQcJQ=
-----END CERTIFICATE-----
