Certificate:
    Data:
        Version: 3 (0x2)
        Serial Number: 15 (0xf)
        Signature Algorithm: sha256WithRSAEncryption
        Issuer: C=US, O=Google, OU=Enterprise, CN=Single Root CA
        Validity
            Not Before: Dec  1 04:38:31 2025 GMT
            Not After : Dec  1 04:38:31 2035 GMT
        Subject: C=US, O=Google, OU=Enterprise, CN=envoy.esodemoapp2.com
        Subject Public Key Info:
            Public Key Algorithm: rsaEncryption
                Public-Key: (2048 bit)
                Modulus:
                    00:e6:00:eb:8f:7b:16:e1:63:53:3b:ba:e7:3f:15:
                    dd:92:79:1f:2a:e2:b4:64:af:d6:a7:c4:86:f1:eb:
                    e0:a1:61:74:e8:06:f0:c2:2d:3a:f0:3c:1b:67:34:
                    82:2b:e2:88:6e:18:d9:f9:6a:42:74:fd:6d:22:85:
                    2d:a1:ec:3f:1b:b0:08:ee:1b:21:2c:f8:67:21:51:
                    ea:5c:ae:b3:d7:7d:a7:80:f5:93:f7:36:26:18:e6:
                    a3:6c:42:c7:34:60:df:42:69:30:b1:42:94:c1:f2:
                    96:cf:55:38:05:7b:65:81:dc:54:45:2a:b6:b6:81:
                    06:6d:04:29:84:eb:b1:dc:a6:e3:41:58:a0:57:22:
                    a2:f5:ac:bb:c2:71:65:ef:95:87:a2:4a:a3:12:d2:
                    a3:09:6f:bf:ef:04:ba:25:c9:1d:3c:7b:a3:05:3a:
                    6e:7f:bc:87:54:6b:5d:c0:8b:27:8b:03:7d:38:e4:
                    1a:42:9d:83:38:1f:fb:de:be:17:2e:34:ca:70:10:
                    9c:52:bf:0a:bf:83:e6:fe:14:84:2f:0e:96:a8:e0:
                    66:40:13:af:f9:3a:19:4e:14:61:05:09:32:f3:ec:
                    6e:64:45:18:1d:f8:14:f2:b5:f5:1e:94:dc:a2:2c:
                    f5:4b:c0:1f:cf:74:ca:69:d8:85:ca:38:3f:2e:08:
                    7e:7f
                Exponent: 65537 (0x10001)
        X509v3 extensions:
            X509v3 Key Usage: critical
                Digital Signature
            X509v3 Basic Constraints: 
                CA:FALSE
            X509v3 Extended Key Usage: 
                TLS Web Server Authentication
            X509v3 Subject Key Identifier: 
                26:99:08:C0:DF:64:05:8D:BE:9D:64:ED:AB:1E:72:9C:4F:DF:E6:C9
            X509v3 Authority Key Identifier: 
                D2:8C:6F:F6:B3:15:F0:72:70:3B:F9:18:C9:E2:9B:35:29:A6:5D:34
            Authority Information Access: 
                CA Issuers - URI:http://pki.esodemoapp2.com/ca/root-ca.cer
            X509v3 CRL Distribution Points: 
                Full Name:
                  URI:http://pki.esodemoapp2.com/ca/root-ca.crl

            X509v3 Subject Alternative Name: 
                DNS:envoy.esodemoapp2.com
    Signature Algorithm: sha256WithRSAEncryption
    Signature Value:
        83:c2:66:f9:ec:d1:2a:2c:cd:b6:81:8f:3a:37:d4:57:78:9a:
        dc:0c:0d:9b:45:d2:d4:e7:2f:5e:c1:59:c7:f3:ea:b5:8f:30:
        84:0c:42:fd:7b:49:72:82:e3:cf:c4:48:47:c9:47:2c:50:15:
        25:80:2d:2b:4d:96:77:a4:eb:39:fb:af:b7:65:2b:a8:42:01:
        c8:a6:94:d1:d7:03:4e:9e:3d:8c:82:a6:38:a7:1e:7d:a5:5a:
        3e:f7:02:d8:fc:f6:92:34:47:6d:3e:98:e4:6c:5b:9a:fd:52:
        08:ce:2e:ba:7e:d1:4f:00:89:dc:94:96:7d:91:ba:e5:94:9f:
        3f:8e:22:15:0f:85:fd:17:31:ed:34:8f:b0:42:fd:da:05:1f:
        52:cd:ab:16:9a:06:b4:c7:a3:86:90:a2:b1:b1:4a:10:70:58:
        13:c7:28:9d:ce:58:bf:ff:da:83:5e:e1:58:62:14:07:64:fb:
        3c:3b:df:9f:f3:37:f7:77:f2:23:e0:0e:b2:52:89:21:5e:43:
        ec:a1:3b:26:56:85:c8:50:9e:d9:6c:42:fa:29:d8:6b:4a:ac:
        34:f7:56:c8:fe:04:4c:bc:3f:66:5c:0c:9e:6a:49:a7:f1:36:
        62:da:a2:f0:ab:b3:0f:9c:91:d3:e5:47:5e:7f:c1:af:d8:5d:
        29:aa:ac:a5
-----BEGIN CERTIFICATE-----
MIIENTCCAx2gAwIBAgIBDzANBgkqhkiG9w0BAQsFADBMMQswCQYDVQQGEwJVUzEP
MA0GA1UECgwGR29vZ2xlMRMwEQYDVQQLDApFbnRlcnByaXNlMRcwFQYDVQQDDA5T
aW5nbGUgUm9vdCBDQTAeFw0yNTEyMDEwNDM4MzFaFw0zNTEyMDEwNDM4MzFaMFMx
CzAJBgNVBAYTAlVTMQ8wDQYDVQQKDAZHb29nbGUxEzARBgNVBAsMCkVudGVycHJp
c2UxHjAcBgNVBAMMFWVudm95LmVzb2RlbW9hcHAyLmNvbTCCASIwDQYJKoZIhvcN
AQEBBQADggEPADCCAQoCggEBAOYA6497FuFjUzu65z8V3ZJ5HyritGSv1qfEhvHr
4KFhdOgG8MItOvA8G2c0giviiG4Y2flqQnT9bSKFLaHsPxuwCO4bISz4ZyFR6lyu
s9d9p4D1k/c2Jhjmo2xCxzRg30JpMLFClMHyls9VOAV7ZYHcVEUqtraBBm0EKYTr
sdym40FYoFciovWsu8JxZe+Vh6JKoxLSowlvv+8EuiXJHTx7owU6bn+8h1RrXcCL
J4sDfTjkGkKdgzgf+96+Fy40ynAQnFK/Cr+D5v4UhC8OlqjgZkATr/k6GU4UYQUJ
MvPsbmRFGB34FPK19R6U3KIs9UvAH890ymnYhco4Py4Ifn8CAwEAAaOCARkwggEV
MA4GA1UdDwEB/wQEAwIHgDAJBgNVHRMEAjAAMBMGA1UdJQQMMAoGCCsGAQUFBwMB
MB0GA1UdDgQWBBQmmQjA32QFjb6dZO2rHnKcT9/myTAfBgNVHSMEGDAWgBTSjG/2
sxXwcnA7+RjJ4ps1KaZdNDBFBggrBgEFBQcBAQQ5MDcwNQYIKwYBBQUHMAKGKWh0
dHA6Ly9wa2kuZXNvZGVtb2FwcDIuY29tL2NhL3Jvb3QtY2EuY2VyMDoGA1UdHwQz
MDEwL6AtoCuGKWh0dHA6Ly9wa2kuZXNvZGVtb2FwcDIuY29tL2NhL3Jvb3QtY2Eu
Y3JsMCAGA1UdEQQZMBeCFWVudm95LmVzb2RlbW9hcHAyLmNvbTANBgkqhkiG9w0B
AQsFAAOCAQEAg8Jm+ezRKizNtoGPOjfUV3ia3AwNm0XS1OcvXsFZx/PqtY8whAxC
/XtJcoLjz8RIR8lHLFAVJYAtK02Wd6TrOfuvt2UrqEIByKaU0dcDTp49jIKmOKce
faVaPvcC2Pz2kjRHbT6Y5Gxbmv1SCM4uun7RTwCJ3JSWfZG65ZSfP44iFQ+F/Rcx
7TSPsEL92gUfUs2rFpoGtMejhpCisbFKEHBYE8conc5Yv//ag17hWGIUB2T7PDvf
n/M393fyI+AOslKJIV5D7KE7JlaFyFCe2WxC+inYa0qsNPdWyP4ETLw/ZlwMnmpJ
p/E2Ytqi8KuzD5yR0+VHXn/Br9hdKaqspQ==
-----END CERTIFICATE-----
