Certificate:
    Data:
        Version: 3 (0x2)
        Serial Number: 1 (0x1)
        Signature Algorithm: sha256WithRSAEncryption
        Issuer: C=US, O=Google, OU=Enterprise, CN=Single Root CA
        Validity
            Not Before: Oct  9 02:34:08 2025 GMT
            Not After : Oct  9 02:34:08 2035 GMT
        Subject: C=US, O=Google, OU=Enterprise, CN=Single Root CA
        Subject Public Key Info:
            Public Key Algorithm: rsaEncryption
                Public-Key: (2048 bit)
                Modulus:
                    00:c1:7a:51:4f:54:ac:39:a1:cd:92:fc:fd:66:8b:
                    64:43:07:1f:83:62:52:23:3f:f6:71:6e:32:0a:9c:
                    7a:dd:d2:10:5a:91:56:78:88:f7:05:dd:93:5a:6f:
                    c0:4a:c3:43:06:94:b2:be:aa:d0:70:80:90:de:df:
                    6c:3f:3a:36:3e:47:87:db:c4:1b:3d:76:70:42:ff:
                    c9:22:1d:a1:6b:99:69:52:fb:85:2a:91:6e:03:e8:
                    15:b0:0c:bf:7f:13:88:dc:1f:dd:a3:83:d4:d8:d6:
                    4b:7d:e2:52:6c:fd:21:5e:ff:78:a1:ce:75:c6:4b:
                    e7:bb:08:39:a6:a7:28:17:f6:e2:63:a7:27:9c:44:
                    55:f0:25:8a:58:a3:69:ec:9c:8a:7b:7f:69:8f:ff:
                    cc:7b:f9:e3:ca:da:e7:d4:44:9c:07:67:e0:cf:12:
                    84:0b:71:98:ef:bd:58:f6:49:f7:60:78:d4:5b:a7:
                    67:25:e8:e5:b1:67:70:d4:41:b9:3e:a9:ef:e8:0f:
                    d6:95:05:43:4b:b4:2c:39:00:50:3d:1c:48:7b:70:
                    b6:02:bc:48:54:36:44:bb:d4:0b:e0:9c:d3:35:c6:
                    68:87:ed:82:ed:7f:bd:bd:cb:b6:a3:a2:af:d3:b3:
                    cd:79:fe:59:ce:cc:0c:e6:05:c8:d2:10:53:3b:3e:
                    77:8f
                Exponent: 65537 (0x10001)
        X509v3 extensions:
            X509v3 Key Usage: critical
                Certificate Sign, CRL Sign
            X509v3 Basic Constraints: critical
                CA:TRUE
            X509v3 Subject Key Identifier: 
                D2:8C:6F:F6:B3:15:F0:72:70:3B:F9:18:C9:E2:9B:35:29:A6:5D:34
            X509v3 Authority Key Identifier: 
                D2:8C:6F:F6:B3:15:F0:72:70:3B:F9:18:C9:E2:9B:35:29:A6:5D:34
    Signature Algorithm: sha256WithRSAEncryption
    Signature Value:
        4b:c1:44:31:e7:9f:38:87:e6:05:9e:0a:b7:dd:61:95:78:cf:
        31:54:64:e3:86:0a:7d:b9:d0:e3:c5:c0:5d:3c:31:f3:04:50:
        2b:a4:f5:16:af:42:8a:9a:36:40:39:eb:2f:a3:50:49:53:63:
        10:f7:7b:45:54:44:c1:90:d6:0c:de:9e:74:fb:92:4f:36:54:
        66:93:c6:28:05:df:ac:93:53:dc:92:ce:0b:23:f0:c2:ca:3c:
        13:d3:c4:b6:a8:74:2a:1f:49:65:61:01:67:50:4c:ae:b3:53:
        a2:cf:7f:16:ea:4e:11:87:5b:73:bb:3d:6e:37:51:fa:b8:9f:
        d9:24:73:d5:01:d9:4a:4b:22:22:38:09:7e:d9:29:c3:25:1d:
        ee:da:cc:c5:40:6a:05:1d:73:80:f4:02:11:a5:5d:1e:81:fd:
        cd:5d:c3:3a:81:be:c9:62:ce:d3:95:80:ac:65:a2:56:ba:e6:
        70:8f:e5:13:6c:d2:04:08:ce:ab:29:9d:d3:b4:45:f6:5d:b4:
        6c:1a:7c:02:63:e6:95:8a:91:f0:5a:4f:10:d3:28:29:8d:40:
        26:f8:2c:63:98:50:a8:14:ae:fe:16:95:30:7f:96:bb:56:e2:
        75:5c:50:8f:7b:95:d9:c5:7d:cc:97:b3:b5:76:8b:f4:57:7e:
        34:ff:78:22
-----BEGIN CERTIFICATE-----
MIIDdjCCAl6gAwIBAgIBATANBgkqhkiG9w0BAQsFADBMMQswCQYDVQQGEwJVUzEP
MA0GA1UECgwGR29vZ2xlMRMwEQYDVQQLDApFbnRlcnByaXNlMRcwFQYDVQQDDA5T
aW5nbGUgUm9vdCBDQTAeFw0yNTEwMDkwMjM0MDhaFw0zNTEwMDkwMjM0MDhaMEwx
CzAJBgNVBAYTAlVTMQ8wDQYDVQQKDAZHb29nbGUxEzARBgNVBAsMCkVudGVycHJp
c2UxFzAVBgNVBAMMDlNpbmdsZSBSb290IENBMIIBIjANBgkqhkiG9w0BAQEFAAOC
AQ8AMIIBCgKCAQEAwXpRT1SsOaHNkvz9ZotkQwcfg2JSIz/2cW4yCpx63dIQWpFW
eIj3Bd2TWm/ASsNDBpSyvqrQcICQ3t9sPzo2PkeH28QbPXZwQv/JIh2ha5lpUvuF
KpFuA+gVsAy/fxOI3B/do4PU2NZLfeJSbP0hXv94oc51xkvnuwg5pqcoF/biY6cn
nERV8CWKWKNp7JyKe39pj//Me/njytrn1EScB2fgzxKEC3GY771Y9kn3YHjUW6dn
JejlsWdw1EG5Pqnv6A/WlQVDS7QsOQBQPRxIe3C2ArxIVDZEu9QL4JzTNcZoh+2C
7X+9vcu2o6Kv07PNef5ZzswM5gXI0hBTOz53jwIDAQABo2MwYTAOBgNVHQ8BAf8E
BAMCAQYwDwYDVR0TAQH/BAUwAwEB/zAdBgNVHQ4EFgQU0oxv9rMV8HJwO/kYyeKb
NSmmXTQwHwYDVR0jBBgwFoAU0oxv9rMV8HJwO/kYyeKbNSmmXTQwDQYJKoZIhvcN
AQELBQADggEBAEvBRDHnnziH5gWeCrfdYZV4zzFUZOOGCn250OPFwF08MfMEUCuk
9RavQoqaNkA56y+jUElTYxD3e0VURMGQ1gzennT7kk82VGaTxigF36yTU9ySzgsj
8MLKPBPTxLaodCofSWVhAWdQTK6zU6LPfxbqThGHW3O7PW43Ufq4n9kkc9UB2UpL
IiI4CX7ZKcMlHe7azMVAagUdc4D0AhGlXR6B/c1dwzqBvsliztOVgKxlola65nCP
5RNs0gQIzqspndO0RfZdtGwafAJj5pWKkfBaTxDTKCmNQCb4LGOYUKgUrv4WlTB/
lrtW4nVcUI97ldnFfcyXs7V2i/RXfjT/eCI=
-----END CERTIFICATE-----
